target datalayout = "e-m:e-p270:32:32-p271:32:32-p272:64:64-i64:64-i128:128-f80:128-n8:16:32:64-S128"
target triple = "x86_64-pc-linux-gnu"

%"class.boost::detail::signal_action" = type { i32, i8, %struct.sigaction, %struct.sigaction }
%struct.sigaction = type { %union.anon.8, %struct.__sigset_t, i32, ptr }
%union.anon.8 = type { ptr }
%struct.__sigset_t = type { [16 x i64] }

; Function Attrs: mustprogress nounwind uwtable
define hidden void @_ZN5boost6detail13signal_actionD2Ev(ptr noundef nonnull align 8 dereferenceable(312) %0) unnamed_addr #5 align 2 {
  %2 = alloca ptr, align 8
  store ptr %0, ptr %2, align 8, !tbaa !3
  %3 = load ptr, ptr %2, align 8
  %4 = getelementptr inbounds nuw %"class.boost::detail::signal_action", ptr %3, i32 0, i32 1
  %5 = load i8, ptr %4, align 4, !tbaa !16, !range !24, !noundef !25
  %6 = trunc i8 %5 to i1
  br i1 %6, label %7, label %12

7:                                                ; preds = %1
  %8 = getelementptr inbounds nuw %"class.boost::detail::signal_action", ptr %3, i32 0, i32 0
  %9 = load i32, ptr %8, align 8, !tbaa !23
  %10 = getelementptr inbounds nuw %"class.boost::detail::signal_action", ptr %3, i32 0, i32 3
  %11 = call i32 @sigaction(i32 noundef %9, ptr noundef %10, ptr noundef null) #3
  br label %12

12:                                               ; preds = %7, %1
  ret void
}