; Function Attrs: mustprogress nounwind uwtable
define hidden void @_ZN5boost6detail13signal_actionD2Ev(ptr noundef nonnull align 8 dereferenceable(312) %0) unnamed_addr #10 align 2 {
  %2 = getelementptr inbounds nuw i8, ptr %0, i64 4
  %3 = load i8, ptr %2, align 4, !tbaa !18, !range !34, !noundef !35
  %4 = trunc nuw i8 %3 to i1
  br i1 %4, label %5, label %9

5:                                                ; preds = %1
  %6 = load i32, ptr %0, align 8, !tbaa !23
  %7 = getelementptr inbounds nuw i8, ptr %0, i64 160
  %8 = tail call i32 @sigaction(i32 noundef %6, ptr noundef nonnull %7, ptr noundef null) #41
  br label %9

9:                                                ; preds = %5, %1
  ret void
}